target datalayout = "e-m:e-p270:32:32-p271:32:32-p272:64:64-i64:64-i128:128-f80:128-n8:16:32:64-S128"
target triple = "x86_64-pc-linux-gnu"

@hf_netb_resp_corrl = internal global i32 0, align 4
@hf_netb_call_name_type = internal global i32 0, align 4
@hf_netb_local_session_no = internal global i32 0, align 4
@.str.185 = private unnamed_addr constant [14 x i8] c"Sender's Name\00", align 1
@.str.190 = private unnamed_addr constant [22 x i8] c"0 (FIND.NAME request)\00", align 1
@.str.191 = private unnamed_addr constant [11 x i8] c"Query Name\00", align 1

; Function Attrs: nounwind uwtable
define internal void @nb_resp_corrl(ptr noundef %0, i32 noundef %1, ptr noundef %2) #0 {
  %4 = alloca ptr, align 8
  %5 = alloca i32, align 4
  %6 = alloca ptr, align 8
  store ptr %0, ptr %4, align 8
  store i32 %1, ptr %5, align 4
  store ptr %2, ptr %6, align 8
  %7 = load ptr, ptr %6, align 8
  %8 = load i32, ptr @hf_netb_resp_corrl, align 4
  %9 = load ptr, ptr %4, align 8
  %10 = load i32, ptr %5, align 4
  %11 = add i32 %10, 10
  %12 = call ptr @proto_tree_add_item(ptr noundef %7, i32 noundef %8, ptr noundef %9, i32 noundef %11, i32 noundef 2, i32 noundef -2147483648)
  ret void
}

; Function Attrs: nounwind uwtable
define internal void @nb_call_name_type(ptr noundef %0, i32 noundef %1, ptr noundef %2) #0 {
  %4 = alloca ptr, align 8
  %5 = alloca i32, align 4
  %6 = alloca ptr, align 8
  store ptr %0, ptr %4, align 8
  store i32 %1, ptr %5, align 4
  store ptr %2, ptr %6, align 8
  %7 = load ptr, ptr %6, align 8
  %8 = load i32, ptr @hf_netb_call_name_type, align 4
  %9 = load ptr, ptr %4, align 8
  %10 = load i32, ptr %5, align 4
  %11 = add i32 %10, 7
  %12 = call ptr @proto_tree_add_item(ptr noundef %7, i32 noundef %8, ptr noundef %9, i32 noundef %11, i32 noundef 1, i32 noundef -2147483648)
  ret void
}

; Function Attrs: nounwind uwtable
define internal i32 @dissect_netb_name_query(ptr noundef %0, ptr noundef %1, i32 noundef %2, ptr noundef %3) #0 {
  %5 = alloca ptr, align 8
  %6 = alloca ptr, align 8
  %7 = alloca i32, align 4
  %8 = alloca ptr, align 8
  %9 = alloca i8, align 1
  store ptr %0, ptr %5, align 8
  store ptr %1, ptr %6, align 8
  store i32 %2, ptr %7, align 4
  store ptr %3, ptr %8, align 8
  %10 = load ptr, ptr %5, align 8
  %11 = load i32, ptr %7, align 4
  %12 = add i32 %11, 6
  %13 = call zeroext i8 @tvb_get_guint8(ptr noundef %10, i32 noundef %12)
  store i8 %13, ptr %9, align 1
  %14 = load i8, ptr %9, align 1
  %15 = zext i8 %14 to i32
  %16 = icmp eq i32 %15, 0
  br i1 %16, label %17, label %26

17:                                               ; preds = %4
  %18 = load ptr, ptr %8, align 8
  %19 = load i32, ptr @hf_netb_local_session_no, align 4
  %20 = load ptr, ptr %5, align 8
  %21 = load i32, ptr %7, align 4
  %22 = add i32 %21, 6
  %23 = load i8, ptr %9, align 1
  %24 = zext i8 %23 to i32
  %25 = call ptr (ptr, i32, ptr, i32, i32, i32, ptr, ...) @proto_tree_add_uint_format_value(ptr noundef %18, i32 noundef %19, ptr noundef %20, i32 noundef %22, i32 noundef 1, i32 noundef %24, ptr noundef @.str.190)
  br label %33

26:                                               ; preds = %4
  %27 = load ptr, ptr %8, align 8
  %28 = load i32, ptr @hf_netb_local_session_no, align 4
  %29 = load ptr, ptr %5, align 8
  %30 = load i32, ptr %7, align 4
  %31 = add i32 %30, 6
  %32 = call ptr @proto_tree_add_item(ptr noundef %27, i32 noundef %28, ptr noundef %29, i32 noundef %31, i32 noundef 1, i32 noundef -2147483648)
  br label %33

33:                                               ; preds = %26, %17
  %34 = load ptr, ptr %5, align 8
  %35 = load i32, ptr %7, align 4
  %36 = load ptr, ptr %8, align 8
  call void @nb_call_name_type(ptr noundef %34, i32 noundef %35, ptr noundef %36)
  %37 = load ptr, ptr %5, align 8
  %38 = load i32, ptr %7, align 4
  %39 = load ptr, ptr %8, align 8
  call void @nb_resp_corrl(ptr noundef %37, i32 noundef %38, ptr noundef %39)
  %40 = load ptr, ptr %5, align 8
  %41 = load i32, ptr %7, align 4
  %42 = add i32 %41, 12
  %43 = load ptr, ptr %8, align 8
  call void @netbios_add_name(ptr noundef @.str.191, ptr noundef %40, i32 noundef %42, ptr noundef %43)
  %44 = load i8, ptr %9, align 1
  %45 = zext i8 %44 to i32
  %46 = icmp ne i32 %45, 0
  br i1 %46, label %47, label %52

47:                                               ; preds = %33
  %48 = load ptr, ptr %5, align 8
  %49 = load i32, ptr %7, align 4
  %50 = add i32 %49, 28
  %51 = load ptr, ptr %8, align 8
  call void @netbios_add_name(ptr noundef @.str.185, ptr noundef %48, i32 noundef %50, ptr noundef %51)
  br label %52

52:                                               ; preds = %47, %33
  ret i32 0
}