; Function Attrs: nounwind uwtable
define internal noundef i32 @dissect_netb_name_query(ptr noundef %0, ptr readnone captures(none) %1, i32 noundef %2, ptr noundef %3) #1 {
  %5 = add i32 %2, 6
  %6 = tail call zeroext i8 @tvb_get_guint8(ptr noundef %0, i32 noundef %5) #6
  %7 = icmp eq i8 %6, 0
  %8 = load i32, ptr @hf_netb_local_session_no, align 4
  br i1 %7, label %9, label %11

9:                                                ; preds = %4
  %10 = tail call ptr (ptr, i32, ptr, i32, i32, i32, ptr, ...) @proto_tree_add_uint_format_value(ptr noundef %3, i32 noundef %8, ptr noundef %0, i32 noundef %5, i32 noundef 1, i32 noundef 0, ptr noundef nonnull @.str.190) #6
  br label %13

11:                                               ; preds = %4
  %12 = tail call ptr @proto_tree_add_item(ptr noundef %3, i32 noundef %8, ptr noundef %0, i32 noundef %5, i32 noundef 1, i32 noundef -2147483648) #6
  br label %13

13:                                               ; preds = %11, %9
  %14 = load i32, ptr @hf_netb_call_name_type, align 4
  %15 = add i32 %2, 7
  %16 = tail call ptr @proto_tree_add_item(ptr noundef %3, i32 noundef %14, ptr noundef %0, i32 noundef %15, i32 noundef 1, i32 noundef -2147483648) #6
  %17 = load i32, ptr @hf_netb_resp_corrl, align 4
  %18 = add i32 %2, 10
  %19 = tail call ptr @proto_tree_add_item(ptr noundef %3, i32 noundef %17, ptr noundef %0, i32 noundef %18, i32 noundef 2, i32 noundef -2147483648) #6
  %20 = add i32 %2, 12
  tail call void @netbios_add_name(ptr noundef nonnull @.str.191, ptr noundef %0, i32 noundef %20, ptr noundef %3)
  br i1 %7, label %23, label %21

21:                                               ; preds = %13
  %22 = add i32 %2, 28
  tail call void @netbios_add_name(ptr noundef nonnull @.str.185, ptr noundef %0, i32 noundef %22, ptr noundef %3)
  br label %23

23:                                               ; preds = %21, %13
  ret i32 0
}